; Function Attrs: nounwind uwtable
define hidden noundef i32 @phpdbg_do_set_quiet(ptr noundef %0) #0 {
  %.not = icmp eq ptr %0, null
  br i1 %.not, label %4, label %2

2:                                                ; preds = %1
  %3 = load i32, ptr %0, align 8
  switch i32 %3, label %18 [
    i32 0, label %4
    i32 6, label %10
  ]

4:                                                ; preds = %2, %1
  %5 = load i32, ptr getelementptr inbounds (%struct._zend_phpdbg_globals, ptr @phpdbg_globals, i64 0, i32 39, i64 1), align 4
  %6 = load i64, ptr getelementptr inbounds (%struct._zend_phpdbg_globals, ptr @phpdbg_globals, i64 0, i32 53), align 8
  %7 = and i64 %6, 32768
  %.not7 = icmp eq i64 %7, 0
  %8 = select i1 %.not7, ptr @.str.28, ptr @.str.27
  %9 = tail call i32 (i32, i32, ptr, ...) @phpdbg_print(i32 noundef 3, i32 noundef %5, ptr noundef nonnull @.str.44, ptr noundef nonnull %8) #4
  br label %22

10:                                               ; preds = %2
  %11 = getelementptr inbounds i8, ptr %0, i64 8
  %12 = load i64, ptr %11, align 8
  %.not6 = icmp eq i64 %12, 0
  %13 = load i64, ptr getelementptr inbounds (%struct._zend_phpdbg_globals, ptr @phpdbg_globals, i64 0, i32 53), align 8
  br i1 %.not6, label %16, label %14

14:                                               ; preds = %10
  %15 = or i64 %13, 32768
  store i64 %15, ptr getelementptr inbounds (%struct._zend_phpdbg_globals, ptr @phpdbg_globals, i64 0, i32 53), align 8
  br label %22

16:                                               ; preds = %10
  %17 = and i64 %13, -32769
  store i64 %17, ptr getelementptr inbounds (%struct._zend_phpdbg_globals, ptr @phpdbg_globals, i64 0, i32 53), align 8
  br label %22

18:                                               ; preds = %2
  %19 = load i32, ptr getelementptr inbounds (%struct._zend_phpdbg_globals, ptr @phpdbg_globals, i64 0, i32 39, i64 1), align 4
  %20 = tail call ptr @phpdbg_get_param_type(ptr noundef nonnull %0) #4
  %21 = tail call i32 (i32, i32, ptr, ...) @phpdbg_print(i32 noundef 1, i32 noundef %19, ptr noundef nonnull @.str.45, ptr noundef %20) #4
  br label %22

22:                                               ; preds = %18, %16, %14, %4
  ret i32 0
}